V.app-container {\u000a  height: 100vh;\u000a  overflow: hidden; }\u000a\u000a  .side-navigation {\u000a    height: 100%; }\u000a    .side-navigation .nav-links {\u000a      margin: 0;\u000a      padding: 0;\u000a      width: 100%; }\u000a
p1
.